target datalayout = "e-m:e-p270:32:32-p271:32:32-p272:64:64-i64:64-i128:128-f80:128-n8:16:32:64-S128"
target triple = "x86_64-pc-linux-gnu"

%struct.SBRDSPContext = type { ptr, ptr, ptr, ptr, ptr, ptr, ptr, ptr, ptr, ptr, [4 x ptr] }

; Function Attrs: nounwind uwtable
define internal void @sbr_hf_inverse_filter(ptr noundef %0, ptr noundef %1, ptr noundef %2, ptr noundef %3, i32 noundef %4) #3 {
  %6 = alloca ptr, align 8
  %7 = alloca ptr, align 8
  %8 = alloca ptr, align 8
  %9 = alloca ptr, align 8
  %10 = alloca i32, align 4
  %11 = alloca i32, align 4
  %12 = alloca [3 x [2 x [2 x float]]], align 16
  %13 = alloca ptr, align 8
  %14 = alloca float, align 4
  %15 = alloca float, align 4
  %16 = alloca float, align 4
  %17 = alloca float, align 4
  %18 = alloca float, align 4
  store ptr %0, ptr %6, align 8, !tbaa !173
  store ptr %1, ptr %7, align 8, !tbaa !145
  store ptr %2, ptr %8, align 8, !tbaa !145
  store ptr %3, ptr %9, align 8, !tbaa !145
  store i32 %4, ptr %10, align 4, !tbaa !12
  call void @llvm.lifetime.start.p0(i64 4, ptr %11) #12
  store i32 0, ptr %11, align 4, !tbaa !12
  br label %19

19:                                               ; preds = %350, %5
  %20 = load i32, ptr %11, align 4, !tbaa !12
  %21 = load i32, ptr %10, align 4, !tbaa !12
  %22 = icmp slt i32 %20, %21
  br i1 %22, label %23, label %353

23:                                               ; preds = %19
  call void @llvm.lifetime.start.p0(i64 48, ptr %12) #12
  call void @llvm.lifetime.start.p0(i64 8, ptr %13) #12
  %24 = getelementptr inbounds [3 x [2 x [2 x float]]], ptr %12, i64 0, i64 0
  store ptr %24, ptr %13, align 8, !tbaa !145
  call void @llvm.lifetime.start.p0(i64 4, ptr %14) #12
  %25 = load ptr, ptr %6, align 8, !tbaa !173
  %26 = getelementptr inbounds nuw %struct.SBRDSPContext, ptr %25, i32 0, i32 7
  %27 = load ptr, ptr %26, align 8, !tbaa !299
  %28 = load ptr, ptr %9, align 8, !tbaa !145
  %29 = load i32, ptr %11, align 4, !tbaa !12
  %30 = sext i32 %29 to i64
  %31 = getelementptr inbounds [40 x [2 x float]], ptr %28, i64 %30
  %32 = getelementptr inbounds [40 x [2 x float]], ptr %31, i64 0, i64 0
  %33 = load ptr, ptr %13, align 8, !tbaa !145
  call void %27(ptr noundef %32, ptr noundef %33)
  %34 = load ptr, ptr %13, align 8, !tbaa !145
  %35 = getelementptr inbounds [2 x [2 x float]], ptr %34, i64 2
  %36 = getelementptr inbounds [2 x [2 x float]], ptr %35, i64 0, i64 1
  %37 = getelementptr inbounds [2 x float], ptr %36, i64 0, i64 0
  %38 = load float, ptr %37, align 4, !tbaa !32
  %39 = load ptr, ptr %13, align 8, !tbaa !145
  %40 = getelementptr inbounds [2 x [2 x float]], ptr %39, i64 1
  %41 = getelementptr inbounds [2 x [2 x float]], ptr %40, i64 0, i64 0
  %42 = getelementptr inbounds [2 x float], ptr %41, i64 0, i64 0
  %43 = load float, ptr %42, align 4, !tbaa !32
  %44 = load ptr, ptr %13, align 8, !tbaa !145
  %45 = getelementptr inbounds [2 x [2 x float]], ptr %44, i64 1
  %46 = getelementptr inbounds [2 x [2 x float]], ptr %45, i64 0, i64 1
  %47 = getelementptr inbounds [2 x float], ptr %46, i64 0, i64 0
  %48 = load float, ptr %47, align 4, !tbaa !32
  %49 = load ptr, ptr %13, align 8, !tbaa !145
  %50 = getelementptr inbounds [2 x [2 x float]], ptr %49, i64 1
  %51 = getelementptr inbounds [2 x [2 x float]], ptr %50, i64 0, i64 1
  %52 = getelementptr inbounds [2 x float], ptr %51, i64 0, i64 0
  %53 = load float, ptr %52, align 4, !tbaa !32
  %54 = load ptr, ptr %13, align 8, !tbaa !145
  %55 = getelementptr inbounds [2 x [2 x float]], ptr %54, i64 1
  %56 = getelementptr inbounds [2 x [2 x float]], ptr %55, i64 0, i64 1
  %57 = getelementptr inbounds [2 x float], ptr %56, i64 0, i64 1
  %58 = load float, ptr %57, align 4, !tbaa !32
  %59 = load ptr, ptr %13, align 8, !tbaa !145
  %60 = getelementptr inbounds [2 x [2 x float]], ptr %59, i64 1
  %61 = getelementptr inbounds [2 x [2 x float]], ptr %60, i64 0, i64 1
  %62 = getelementptr inbounds [2 x float], ptr %61, i64 0, i64 1
  %63 = load float, ptr %62, align 4, !tbaa !32
  %64 = fmul nsz float %58, %63
  %65 = call nsz float @llvm.fmuladd.f32(float %48, float %53, float %64)
  %66 = fdiv nsz float %65, 0x3FF0000100000000
  %67 = fneg nsz float %66
  %68 = call nsz float @llvm.fmuladd.f32(float %38, float %43, float %67)
  store float %68, ptr %14, align 4, !tbaa !32
  %69 = load float, ptr %14, align 4, !tbaa !32
  %70 = fcmp nsz une float %69, 0.000000e+00
  br i1 %70, label %82, label %71

71:                                               ; preds = %23
  %72 = load ptr, ptr %8, align 8, !tbaa !145
  %73 = load i32, ptr %11, align 4, !tbaa !12
  %74 = sext i32 %73 to i64
  %75 = getelementptr inbounds [2 x float], ptr %72, i64 %74
  %76 = getelementptr inbounds [2 x float], ptr %75, i64 0, i64 0
  store float 0.000000e+00, ptr %76, align 4, !tbaa !32
  %77 = load ptr, ptr %8, align 8, !tbaa !145
  %78 = load i32, ptr %11, align 4, !tbaa !12
  %79 = sext i32 %78 to i64
  %80 = getelementptr inbounds [2 x float], ptr %77, i64 %79
  %81 = getelementptr inbounds [2 x float], ptr %80, i64 0, i64 1
  store float 0.000000e+00, ptr %81, align 4, !tbaa !32
  br label %168

82:                                               ; preds = %23
  call void @llvm.lifetime.start.p0(i64 4, ptr %15) #12
  call void @llvm.lifetime.start.p0(i64 4, ptr %16) #12
  %83 = load ptr, ptr %13, align 8, !tbaa !145
  %84 = getelementptr inbounds [2 x [2 x float]], ptr %83, i64 0
  %85 = getelementptr inbounds [2 x [2 x float]], ptr %84, i64 0, i64 0
  %86 = getelementptr inbounds [2 x float], ptr %85, i64 0, i64 0
  %87 = load float, ptr %86, align 4, !tbaa !32
  %88 = load ptr, ptr %13, align 8, !tbaa !145
  %89 = getelementptr inbounds [2 x [2 x float]], ptr %88, i64 1
  %90 = getelementptr inbounds [2 x [2 x float]], ptr %89, i64 0, i64 1
  %91 = getelementptr inbounds [2 x float], ptr %90, i64 0, i64 0
  %92 = load float, ptr %91, align 4, !tbaa !32
  %93 = load ptr, ptr %13, align 8, !tbaa !145
  %94 = getelementptr inbounds [2 x [2 x float]], ptr %93, i64 0
  %95 = getelementptr inbounds [2 x [2 x float]], ptr %94, i64 0, i64 0
  %96 = getelementptr inbounds [2 x float], ptr %95, i64 0, i64 1
  %97 = load float, ptr %96, align 4, !tbaa !32
  %98 = load ptr, ptr %13, align 8, !tbaa !145
  %99 = getelementptr inbounds [2 x [2 x float]], ptr %98, i64 1
  %100 = getelementptr inbounds [2 x [2 x float]], ptr %99, i64 0, i64 1
  %101 = getelementptr inbounds [2 x float], ptr %100, i64 0, i64 1
  %102 = load float, ptr %101, align 4, !tbaa !32
  %103 = fmul nsz float %97, %102
  %104 = fneg nsz float %103
  %105 = call nsz float @llvm.fmuladd.f32(float %87, float %92, float %104)
  %106 = load ptr, ptr %13, align 8, !tbaa !145
  %107 = getelementptr inbounds [2 x [2 x float]], ptr %106, i64 0
  %108 = getelementptr inbounds [2 x [2 x float]], ptr %107, i64 0, i64 1
  %109 = getelementptr inbounds [2 x float], ptr %108, i64 0, i64 0
  %110 = load float, ptr %109, align 4, !tbaa !32
  %111 = load ptr, ptr %13, align 8, !tbaa !145
  %112 = getelementptr inbounds [2 x [2 x float]], ptr %111, i64 1
  %113 = getelementptr inbounds [2 x [2 x float]], ptr %112, i64 0, i64 0
  %114 = getelementptr inbounds [2 x float], ptr %113, i64 0, i64 0
  %115 = load float, ptr %114, align 4, !tbaa !32
  %116 = fneg nsz float %110
  %117 = call nsz float @llvm.fmuladd.f32(float %116, float %115, float %105)
  store float %117, ptr %15, align 4, !tbaa !32
  %118 = load ptr, ptr %13, align 8, !tbaa !145
  %119 = getelementptr inbounds [2 x [2 x float]], ptr %118, i64 0
  %120 = getelementptr inbounds [2 x [2 x float]], ptr %119, i64 0, i64 0
  %121 = getelementptr inbounds [2 x float], ptr %120, i64 0, i64 0
  %122 = load float, ptr %121, align 4, !tbaa !32
  %123 = load ptr, ptr %13, align 8, !tbaa !145
  %124 = getelementptr inbounds [2 x [2 x float]], ptr %123, i64 1
  %125 = getelementptr inbounds [2 x [2 x float]], ptr %124, i64 0, i64 1
  %126 = getelementptr inbounds [2 x float], ptr %125, i64 0, i64 1
  %127 = load float, ptr %126, align 4, !tbaa !32
  %128 = load ptr, ptr %13, align 8, !tbaa !145
  %129 = getelementptr inbounds [2 x [2 x float]], ptr %128, i64 0
  %130 = getelementptr inbounds [2 x [2 x float]], ptr %129, i64 0, i64 0
  %131 = getelementptr inbounds [2 x float], ptr %130, i64 0, i64 1
  %132 = load float, ptr %131, align 4, !tbaa !32
  %133 = load ptr, ptr %13, align 8, !tbaa !145
  %134 = getelementptr inbounds [2 x [2 x float]], ptr %133, i64 1
  %135 = getelementptr inbounds [2 x [2 x float]], ptr %134, i64 0, i64 1
  %136 = getelementptr inbounds [2 x float], ptr %135, i64 0, i64 0
  %137 = load float, ptr %136, align 4, !tbaa !32
  %138 = fmul nsz float %132, %137
  %139 = call nsz float @llvm.fmuladd.f32(float %122, float %127, float %138)
  %140 = load ptr, ptr %13, align 8, !tbaa !145
  %141 = getelementptr inbounds [2 x [2 x float]], ptr %140, i64 0
  %142 = getelementptr inbounds [2 x [2 x float]], ptr %141, i64 0, i64 1
  %143 = getelementptr inbounds [2 x float], ptr %142, i64 0, i64 1
  %144 = load float, ptr %143, align 4, !tbaa !32
  %145 = load ptr, ptr %13, align 8, !tbaa !145
  %146 = getelementptr inbounds [2 x [2 x float]], ptr %145, i64 1
  %147 = getelementptr inbounds [2 x [2 x float]], ptr %146, i64 0, i64 0
  %148 = getelementptr inbounds [2 x float], ptr %147, i64 0, i64 0
  %149 = load float, ptr %148, align 4, !tbaa !32
  %150 = fneg nsz float %144
  %151 = call nsz float @llvm.fmuladd.f32(float %150, float %149, float %139)
  store float %151, ptr %16, align 4, !tbaa !32
  %152 = load float, ptr %15, align 4, !tbaa !32
  %153 = load float, ptr %14, align 4, !tbaa !32
  %154 = fdiv nsz float %152, %153
  %155 = load ptr, ptr %8, align 8, !tbaa !145
  %156 = load i32, ptr %11, align 4, !tbaa !12
  %157 = sext i32 %156 to i64
  %158 = getelementptr inbounds [2 x float], ptr %155, i64 %157
  %159 = getelementptr inbounds [2 x float], ptr %158, i64 0, i64 0
  store float %154, ptr %159, align 4, !tbaa !32
  %160 = load float, ptr %16, align 4, !tbaa !32
  %161 = load float, ptr %14, align 4, !tbaa !32
  %162 = fdiv nsz float %160, %161
  %163 = load ptr, ptr %8, align 8, !tbaa !145
  %164 = load i32, ptr %11, align 4, !tbaa !12
  %165 = sext i32 %164 to i64
  %166 = getelementptr inbounds [2 x float], ptr %163, i64 %165
  %167 = getelementptr inbounds [2 x float], ptr %166, i64 0, i64 1
  store float %162, ptr %167, align 4, !tbaa !32
  call void @llvm.lifetime.end.p0(i64 4, ptr %16) #12
  call void @llvm.lifetime.end.p0(i64 4, ptr %15) #12
  br label %168

168:                                              ; preds = %82, %71
  %169 = load ptr, ptr %13, align 8, !tbaa !145
  %170 = getelementptr inbounds [2 x [2 x float]], ptr %169, i64 1
  %171 = getelementptr inbounds [2 x [2 x float]], ptr %170, i64 0, i64 0
  %172 = getelementptr inbounds [2 x float], ptr %171, i64 0, i64 0
  %173 = load float, ptr %172, align 4, !tbaa !32
  %174 = fcmp nsz une float %173, 0.000000e+00
  br i1 %174, label %186, label %175

175:                                              ; preds = %168
  %176 = load ptr, ptr %7, align 8, !tbaa !145
  %177 = load i32, ptr %11, align 4, !tbaa !12
  %178 = sext i32 %177 to i64
  %179 = getelementptr inbounds [2 x float], ptr %176, i64 %178
  %180 = getelementptr inbounds [2 x float], ptr %179, i64 0, i64 0
  store float 0.000000e+00, ptr %180, align 4, !tbaa !32
  %181 = load ptr, ptr %7, align 8, !tbaa !145
  %182 = load i32, ptr %11, align 4, !tbaa !12
  %183 = sext i32 %182 to i64
  %184 = getelementptr inbounds [2 x float], ptr %181, i64 %183
  %185 = getelementptr inbounds [2 x float], ptr %184, i64 0, i64 1
  store float 0.000000e+00, ptr %185, align 4, !tbaa !32
  br label %272

186:                                              ; preds = %168
  call void @llvm.lifetime.start.p0(i64 4, ptr %17) #12
  call void @llvm.lifetime.start.p0(i64 4, ptr %18) #12
  %187 = load ptr, ptr %13, align 8, !tbaa !145
  %188 = getelementptr inbounds [2 x [2 x float]], ptr %187, i64 0
  %189 = getelementptr inbounds [2 x [2 x float]], ptr %188, i64 0, i64 0
  %190 = getelementptr inbounds [2 x float], ptr %189, i64 0, i64 0
  %191 = load float, ptr %190, align 4, !tbaa !32
  %192 = load ptr, ptr %8, align 8, !tbaa !145
  %193 = load i32, ptr %11, align 4, !tbaa !12
  %194 = sext i32 %193 to i64
  %195 = getelementptr inbounds [2 x float], ptr %192, i64 %194
  %196 = getelementptr inbounds [2 x float], ptr %195, i64 0, i64 0
  %197 = load float, ptr %196, align 4, !tbaa !32
  %198 = load ptr, ptr %13, align 8, !tbaa !145
  %199 = getelementptr inbounds [2 x [2 x float]], ptr %198, i64 1
  %200 = getelementptr inbounds [2 x [2 x float]], ptr %199, i64 0, i64 1
  %201 = getelementptr inbounds [2 x float], ptr %200, i64 0, i64 0
  %202 = load float, ptr %201, align 4, !tbaa !32
  %203 = call nsz float @llvm.fmuladd.f32(float %197, float %202, float %191)
  %204 = load ptr, ptr %8, align 8, !tbaa !145
  %205 = load i32, ptr %11, align 4, !tbaa !12
  %206 = sext i32 %205 to i64
  %207 = getelementptr inbounds [2 x float], ptr %204, i64 %206
  %208 = getelementptr inbounds [2 x float], ptr %207, i64 0, i64 1
  %209 = load float, ptr %208, align 4, !tbaa !32
  %210 = load ptr, ptr %13, align 8, !tbaa !145
  %211 = getelementptr inbounds [2 x [2 x float]], ptr %210, i64 1
  %212 = getelementptr inbounds [2 x [2 x float]], ptr %211, i64 0, i64 1
  %213 = getelementptr inbounds [2 x float], ptr %212, i64 0, i64 1
  %214 = load float, ptr %213, align 4, !tbaa !32
  %215 = call nsz float @llvm.fmuladd.f32(float %209, float %214, float %203)
  store float %215, ptr %17, align 4, !tbaa !32
  %216 = load ptr, ptr %13, align 8, !tbaa !145
  %217 = getelementptr inbounds [2 x [2 x float]], ptr %216, i64 0
  %218 = getelementptr inbounds [2 x [2 x float]], ptr %217, i64 0, i64 0
  %219 = getelementptr inbounds [2 x float], ptr %218, i64 0, i64 1
  %220 = load float, ptr %219, align 4, !tbaa !32
  %221 = load ptr, ptr %8, align 8, !tbaa !145
  %222 = load i32, ptr %11, align 4, !tbaa !12
  %223 = sext i32 %222 to i64
  %224 = getelementptr inbounds [2 x float], ptr %221, i64 %223
  %225 = getelementptr inbounds [2 x float], ptr %224, i64 0, i64 1
  %226 = load float, ptr %225, align 4, !tbaa !32
  %227 = load ptr, ptr %13, align 8, !tbaa !145
  %228 = getelementptr inbounds [2 x [2 x float]], ptr %227, i64 1
  %229 = getelementptr inbounds [2 x [2 x float]], ptr %228, i64 0, i64 1
  %230 = getelementptr inbounds [2 x float], ptr %229, i64 0, i64 0
  %231 = load float, ptr %230, align 4, !tbaa !32
  %232 = call nsz float @llvm.fmuladd.f32(float %226, float %231, float %220)
  %233 = load ptr, ptr %8, align 8, !tbaa !145
  %234 = load i32, ptr %11, align 4, !tbaa !12
  %235 = sext i32 %234 to i64
  %236 = getelementptr inbounds [2 x float], ptr %233, i64 %235
  %237 = getelementptr inbounds [2 x float], ptr %236, i64 0, i64 0
  %238 = load float, ptr %237, align 4, !tbaa !32
  %239 = load ptr, ptr %13, align 8, !tbaa !145
  %240 = getelementptr inbounds [2 x [2 x float]], ptr %239, i64 1
  %241 = getelementptr inbounds [2 x [2 x float]], ptr %240, i64 0, i64 1
  %242 = getelementptr inbounds [2 x float], ptr %241, i64 0, i64 1
  %243 = load float, ptr %242, align 4, !tbaa !32
  %244 = fneg nsz float %238
  %245 = call nsz float @llvm.fmuladd.f32(float %244, float %243, float %232)
  store float %245, ptr %18, align 4, !tbaa !32
  %246 = load float, ptr %17, align 4, !tbaa !32
  %247 = fneg nsz float %246
  %248 = load ptr, ptr %13, align 8, !tbaa !145
  %249 = getelementptr inbounds [2 x [2 x float]], ptr %248, i64 1
  %250 = getelementptr inbounds [2 x [2 x float]], ptr %249, i64 0, i64 0
  %251 = getelementptr inbounds [2 x float], ptr %250, i64 0, i64 0
  %252 = load float, ptr %251, align 4, !tbaa !32
  %253 = fdiv nsz float %247, %252
  %254 = load ptr, ptr %7, align 8, !tbaa !145
  %255 = load i32, ptr %11, align 4, !tbaa !12
  %256 = sext i32 %255 to i64
  %257 = getelementptr inbounds [2 x float], ptr %254, i64 %256
  %258 = getelementptr inbounds [2 x float], ptr %257, i64 0, i64 0
  store float %253, ptr %258, align 4, !tbaa !32
  %259 = load float, ptr %18, align 4, !tbaa !32
  %260 = fneg nsz float %259
  %261 = load ptr, ptr %13, align 8, !tbaa !145
  %262 = getelementptr inbounds [2 x [2 x float]], ptr %261, i64 1
  %263 = getelementptr inbounds [2 x [2 x float]], ptr %262, i64 0, i64 0
  %264 = getelementptr inbounds [2 x float], ptr %263, i64 0, i64 0
  %265 = load float, ptr %264, align 4, !tbaa !32
  %266 = fdiv nsz float %260, %265
  %267 = load ptr, ptr %7, align 8, !tbaa !145
  %268 = load i32, ptr %11, align 4, !tbaa !12
  %269 = sext i32 %268 to i64
  %270 = getelementptr inbounds [2 x float], ptr %267, i64 %269
  %271 = getelementptr inbounds [2 x float], ptr %270, i64 0, i64 1
  store float %266, ptr %271, align 4, !tbaa !32
  call void @llvm.lifetime.end.p0(i64 4, ptr %18) #12
  call void @llvm.lifetime.end.p0(i64 4, ptr %17) #12
  br label %272

272:                                              ; preds = %186, %175
  %273 = load ptr, ptr %8, align 8, !tbaa !145
  %274 = load i32, ptr %11, align 4, !tbaa !12
  %275 = sext i32 %274 to i64
  %276 = getelementptr inbounds [2 x float], ptr %273, i64 %275
  %277 = getelementptr inbounds [2 x float], ptr %276, i64 0, i64 0
  %278 = load float, ptr %277, align 4, !tbaa !32
  %279 = load ptr, ptr %8, align 8, !tbaa !145
  %280 = load i32, ptr %11, align 4, !tbaa !12
  %281 = sext i32 %280 to i64
  %282 = getelementptr inbounds [2 x float], ptr %279, i64 %281
  %283 = getelementptr inbounds [2 x float], ptr %282, i64 0, i64 0
  %284 = load float, ptr %283, align 4, !tbaa !32
  %285 = load ptr, ptr %8, align 8, !tbaa !145
  %286 = load i32, ptr %11, align 4, !tbaa !12
  %287 = sext i32 %286 to i64
  %288 = getelementptr inbounds [2 x float], ptr %285, i64 %287
  %289 = getelementptr inbounds [2 x float], ptr %288, i64 0, i64 1
  %290 = load float, ptr %289, align 4, !tbaa !32
  %291 = load ptr, ptr %8, align 8, !tbaa !145
  %292 = load i32, ptr %11, align 4, !tbaa !12
  %293 = sext i32 %292 to i64
  %294 = getelementptr inbounds [2 x float], ptr %291, i64 %293
  %295 = getelementptr inbounds [2 x float], ptr %294, i64 0, i64 1
  %296 = load float, ptr %295, align 4, !tbaa !32
  %297 = fmul nsz float %290, %296
  %298 = call nsz float @llvm.fmuladd.f32(float %278, float %284, float %297)
  %299 = fcmp nsz oge float %298, 1.600000e+01
  br i1 %299, label %328, label %300

300:                                              ; preds = %272
  %301 = load ptr, ptr %7, align 8, !tbaa !145
  %302 = load i32, ptr %11, align 4, !tbaa !12
  %303 = sext i32 %302 to i64
  %304 = getelementptr inbounds [2 x float], ptr %301, i64 %303
  %305 = getelementptr inbounds [2 x float], ptr %304, i64 0, i64 0
  %306 = load float, ptr %305, align 4, !tbaa !32
  %307 = load ptr, ptr %7, align 8, !tbaa !145
  %308 = load i32, ptr %11, align 4, !tbaa !12
  %309 = sext i32 %308 to i64
  %310 = getelementptr inbounds [2 x float], ptr %307, i64 %309
  %311 = getelementptr inbounds [2 x float], ptr %310, i64 0, i64 0
  %312 = load float, ptr %311, align 4, !tbaa !32
  %313 = load ptr, ptr %7, align 8, !tbaa !145
  %314 = load i32, ptr %11, align 4, !tbaa !12
  %315 = sext i32 %314 to i64
  %316 = getelementptr inbounds [2 x float], ptr %313, i64 %315
  %317 = getelementptr inbounds [2 x float], ptr %316, i64 0, i64 1
  %318 = load float, ptr %317, align 4, !tbaa !32
  %319 = load ptr, ptr %7, align 8, !tbaa !145
  %320 = load i32, ptr %11, align 4, !tbaa !12
  %321 = sext i32 %320 to i64
  %322 = getelementptr inbounds [2 x float], ptr %319, i64 %321
  %323 = getelementptr inbounds [2 x float], ptr %322, i64 0, i64 1
  %324 = load float, ptr %323, align 4, !tbaa !32
  %325 = fmul nsz float %318, %324
  %326 = call nsz float @llvm.fmuladd.f32(float %306, float %312, float %325)
  %327 = fcmp nsz oge float %326, 1.600000e+01
  br i1 %327, label %328, label %349

328:                                              ; preds = %300, %272
  %329 = load ptr, ptr %8, align 8, !tbaa !145
  %330 = load i32, ptr %11, align 4, !tbaa !12
  %331 = sext i32 %330 to i64
  %332 = getelementptr inbounds [2 x float], ptr %329, i64 %331
  %333 = getelementptr inbounds [2 x float], ptr %332, i64 0, i64 0
  store float 0.000000e+00, ptr %333, align 4, !tbaa !32
  %334 = load ptr, ptr %8, align 8, !tbaa !145
  %335 = load i32, ptr %11, align 4, !tbaa !12
  %336 = sext i32 %335 to i64
  %337 = getelementptr inbounds [2 x float], ptr %334, i64 %336
  %338 = getelementptr inbounds [2 x float], ptr %337, i64 0, i64 1
  store float 0.000000e+00, ptr %338, align 4, !tbaa !32
  %339 = load ptr, ptr %7, align 8, !tbaa !145
  %340 = load i32, ptr %11, align 4, !tbaa !12
  %341 = sext i32 %340 to i64
  %342 = getelementptr inbounds [2 x float], ptr %339, i64 %341
  %343 = getelementptr inbounds [2 x float], ptr %342, i64 0, i64 0
  store float 0.000000e+00, ptr %343, align 4, !tbaa !32
  %344 = load ptr, ptr %7, align 8, !tbaa !145
  %345 = load i32, ptr %11, align 4, !tbaa !12
  %346 = sext i32 %345 to i64
  %347 = getelementptr inbounds [2 x float], ptr %344, i64 %346
  %348 = getelementptr inbounds [2 x float], ptr %347, i64 0, i64 1
  store float 0.000000e+00, ptr %348, align 4, !tbaa !32
  br label %349

349:                                              ; preds = %328, %300
  call void @llvm.lifetime.end.p0(i64 4, ptr %14) #12
  call void @llvm.lifetime.end.p0(i64 8, ptr %13) #12
  call void @llvm.lifetime.end.p0(i64 48, ptr %12) #12
  br label %350

350:                                              ; preds = %349
  %351 = load i32, ptr %11, align 4, !tbaa !12
  %352 = add nsw i32 %351, 1
  store i32 %352, ptr %11, align 4, !tbaa !12
  br label %19, !llvm.loop !300

353:                                              ; preds = %19
  call void @llvm.lifetime.end.p0(i64 4, ptr %11) #12
  ret void
}