; Function Attrs: nounwind uwtable
define internal void @sbr_hf_inverse_filter(ptr noundef readonly captures(none) %0, ptr noundef writeonly captures(none) %1, ptr noundef captures(none) %2, ptr noundef %3, i32 noundef %4) #3 {
  %6 = alloca [3 x [2 x [2 x float]]], align 16
  %7 = icmp sgt i32 %4, 0
  br i1 %7, label %.lr.ph, label %._crit_edge

.lr.ph:                                           ; preds = %5
  %8 = getelementptr inbounds nuw i8, ptr %0, i64 56
  %9 = getelementptr inbounds nuw i8, ptr %6, i64 40
  %10 = getelementptr inbounds nuw i8, ptr %6, i64 16
  %11 = getelementptr inbounds nuw i8, ptr %6, i64 24
  %12 = getelementptr inbounds nuw i8, ptr %6, i64 28
  %13 = getelementptr inbounds nuw i8, ptr %6, i64 4
  %14 = getelementptr inbounds nuw i8, ptr %6, i64 8
  %15 = getelementptr inbounds nuw i8, ptr %6, i64 12
  %wide.trip.count = zext nneg i32 %4 to i64
  br label %16

16:                                               ; preds = %.lr.ph, %83
  %indvars.iv = phi i64 [ 0, %.lr.ph ], [ %indvars.iv.next, %83 ]
  call void @llvm.lifetime.start.p0(i64 48, ptr nonnull %6) #15
  %17 = load ptr, ptr %8, align 8, !tbaa !264
  %18 = getelementptr inbounds nuw [40 x [2 x float]], ptr %3, i64 %indvars.iv
  call void %17(ptr noundef %18, ptr noundef nonnull %6) #15
  %19 = load float, ptr %9, align 8, !tbaa !26
  %20 = load float, ptr %10, align 16, !tbaa !26
  %21 = load float, ptr %11, align 8, !tbaa !26
  %22 = load float, ptr %12, align 4, !tbaa !26
  %23 = fmul nsz float %22, %22
  %24 = call nsz float @llvm.fmuladd.f32(float %21, float %21, float %23)
  %25 = fdiv nsz float %24, 0xBFF0000100000000
  %26 = call nsz float @llvm.fmuladd.f32(float %19, float %20, float %25)
  %27 = fcmp nsz une float %26, 0.000000e+00
  br i1 %27, label %30, label %28

28:                                               ; preds = %16
  %29 = getelementptr inbounds nuw [2 x float], ptr %2, i64 %indvars.iv
  store float 0.000000e+00, ptr %29, align 4, !tbaa !26
  br label %47

30:                                               ; preds = %16
  %31 = load float, ptr %6, align 16, !tbaa !26
  %32 = load float, ptr %13, align 4, !tbaa !26
  %33 = fneg nsz float %22
  %34 = fmul nsz float %32, %33
  %35 = call nsz float @llvm.fmuladd.f32(float %31, float %21, float %34)
  %36 = load float, ptr %14, align 8, !tbaa !26
  %37 = fneg nsz float %36
  %38 = call nsz float @llvm.fmuladd.f32(float %37, float %20, float %35)
  %39 = fmul nsz float %21, %32
  %40 = call nsz float @llvm.fmuladd.f32(float %31, float %22, float %39)
  %41 = load float, ptr %15, align 4, !tbaa !26
  %42 = fneg nsz float %41
  %43 = call nsz float @llvm.fmuladd.f32(float %42, float %20, float %40)
  %44 = fdiv nsz float %38, %26
  %45 = getelementptr inbounds nuw [2 x float], ptr %2, i64 %indvars.iv
  store float %44, ptr %45, align 4, !tbaa !26
  %46 = fdiv nsz float %43, %26
  br label %47

47:                                               ; preds = %30, %28
  %.sink = phi float [ %46, %30 ], [ 0.000000e+00, %28 ]
  %48 = phi float [ %44, %30 ], [ 0.000000e+00, %28 ]
  %49 = getelementptr inbounds nuw [2 x float], ptr %2, i64 %indvars.iv, i64 1
  store float %.sink, ptr %49, align 4, !tbaa !26
  %50 = fcmp nsz une float %20, 0.000000e+00
  br i1 %50, label %53, label %51

51:                                               ; preds = %47
  %52 = getelementptr inbounds nuw [2 x float], ptr %1, i64 %indvars.iv
  store float 0.000000e+00, ptr %52, align 4, !tbaa !26
  br label %66

53:                                               ; preds = %47
  %54 = load float, ptr %6, align 16, !tbaa !26
  %55 = call nsz float @llvm.fmuladd.f32(float %48, float %21, float %54)
  %56 = call nsz float @llvm.fmuladd.f32(float %.sink, float %22, float %55)
  %57 = load float, ptr %13, align 4, !tbaa !26
  %58 = call nsz float @llvm.fmuladd.f32(float %.sink, float %21, float %57)
  %59 = fneg nsz float %48
  %60 = call nsz float @llvm.fmuladd.f32(float %59, float %22, float %58)
  %61 = fneg nsz float %56
  %62 = fdiv nsz float %61, %20
  %63 = getelementptr inbounds nuw [2 x float], ptr %1, i64 %indvars.iv
  store float %62, ptr %63, align 4, !tbaa !26
  %64 = fneg nsz float %60
  %65 = fdiv nsz float %64, %20
  br label %66

66:                                               ; preds = %53, %51
  %.sink94 = phi float [ %65, %53 ], [ 0.000000e+00, %51 ]
  %67 = phi float [ %62, %53 ], [ 0.000000e+00, %51 ]
  %68 = getelementptr inbounds nuw [2 x float], ptr %1, i64 %indvars.iv, i64 1
  store float %.sink94, ptr %68, align 4, !tbaa !26
  %69 = getelementptr inbounds nuw [2 x float], ptr %2, i64 %indvars.iv
  %70 = load float, ptr %69, align 4, !tbaa !26
  %71 = getelementptr inbounds nuw i8, ptr %69, i64 4
  %72 = load float, ptr %71, align 4, !tbaa !26
  %73 = fmul nsz float %72, %72
  %74 = call nsz float @llvm.fmuladd.f32(float %70, float %70, float %73)
  %75 = fcmp nsz ult float %74, 1.600000e+01
  br i1 %75, label %76, label %80

76:                                               ; preds = %66
  %77 = fmul nsz float %.sink94, %.sink94
  %78 = call nsz float @llvm.fmuladd.f32(float %67, float %67, float %77)
  %79 = fcmp nsz ult float %78, 1.600000e+01
  br i1 %79, label %83, label %80

80:                                               ; preds = %76, %66
  store float 0.000000e+00, ptr %69, align 4, !tbaa !26
  store float 0.000000e+00, ptr %71, align 4, !tbaa !26
  %81 = getelementptr inbounds nuw [2 x float], ptr %1, i64 %indvars.iv
  store float 0.000000e+00, ptr %81, align 4, !tbaa !26
  %82 = getelementptr inbounds nuw i8, ptr %81, i64 4
  store float 0.000000e+00, ptr %82, align 4, !tbaa !26
  br label %83

83:                                               ; preds = %80, %76
  call void @llvm.lifetime.end.p0(i64 48, ptr nonnull %6) #15
  %indvars.iv.next = add nuw nsw i64 %indvars.iv, 1
  %exitcond.not = icmp eq i64 %indvars.iv.next, %wide.trip.count
  br i1 %exitcond.not, label %._crit_edge, label %16, !llvm.loop !265

._crit_edge:                                      ; preds = %83, %5
  ret void
}